target datalayout = "e-m:e-p270:32:32-p271:32:32-p272:64:64-i64:64-i128:128-f80:128-n8:16:32:64-S128"
target triple = "x86_64-pc-linux-gnu"

%struct._zend_phpdbg_globals = type { [11 x %struct._zend_array], %struct._zend_array, %struct._zend_array, ptr, ptr, %struct.phpdbg_frame_t, i32, ptr, %struct.phpdbg_lexer_data, ptr, %struct.sigaction, i32, i64, %struct.phpdbg_btree, %struct.phpdbg_btree, %struct._zend_array, %struct._zend_array, %struct._zend_array, %struct._zend_array, ptr, ptr, i8, ptr, ptr, ptr, i64, ptr, %struct._zval_struct, i32, i32, i8, i8, ptr, ptr, ptr, %struct._zend_array, ptr, ptr, ptr, [3 x %struct.anon.8], ptr, %struct.anon.9, i64, [2 x ptr], [3 x ptr], ptr, i8, ptr, ptr, [500 x i8], i32, %struct.phpdbg_signal_safe_mem, ptr, i64, ptr, i64 }
%struct.phpdbg_frame_t = type { i32, ptr, ptr }
%struct.phpdbg_lexer_data = type { i32, ptr, ptr, ptr, ptr, i32 }
%struct.sigaction = type { %union.anon.2, %struct.__sigset_t, i32, ptr }
%union.anon.2 = type { ptr }
%struct.__sigset_t = type { [16 x i64] }
%struct.phpdbg_btree = type { i64, i64, i8, ptr }
%struct._zval_struct = type { %union._zend_value, %union.anon.4, %union.anon.7 }
%union._zend_value = type { i64 }
%union.anon.4 = type { i32 }
%union.anon.7 = type { i32 }
%struct._zend_array = type { %struct._zend_refcounted_h, %union.anon.0, i32, %union.anon.1, i32, i32, i32, i32, i64, ptr }
%struct._zend_refcounted_h = type { i32, %union.anon }
%union.anon = type { i32 }
%union.anon.0 = type { i32 }
%union.anon.1 = type { ptr }
%struct.anon.8 = type { i32 }
%struct.anon.9 = type { i8, i32, i32, ptr, i32 }
%struct.phpdbg_signal_safe_mem = type { ptr, i8, ptr, ptr }
%struct._zend_op_array = type { i8, [3 x i8], i32, ptr, ptr, ptr, i32, i32, ptr, ptr, ptr, ptr, i32, i32, i32, i32, ptr, ptr, ptr, ptr, ptr, i32, i32, ptr, ptr, ptr, i32, i32, i32, i32, ptr, ptr, [6 x ptr] }
%struct.phpdbg_file_source = type { ptr, i64, %struct._zend_op_array, i32, [1 x i32] }

@phpdbg_globals = external global %struct._zend_phpdbg_globals, align 8
@.str.18 = private unnamed_addr constant [50 x i8] c"Could not find information about included file...\00", align 1
@.str.19 = private unnamed_addr constant [12 x i8] c" %05u: %.*s\00", align 1
@.str.20 = private unnamed_addr constant [12 x i8] c">%05u: %.*s\00", align 1
@.str.21 = private unnamed_addr constant [2 x i8] c"\0A\00", align 1

; Function Attrs: nounwind uwtable
define hidden void @phpdbg_list_file(ptr noundef %0, i32 noundef %1, i32 noundef %2, i32 noundef %3) #0 {
  %5 = alloca ptr, align 8
  %6 = alloca ptr, align 8
  %7 = alloca ptr, align 8
  %8 = alloca ptr, align 8
  %9 = alloca ptr, align 8
  %10 = alloca i32, align 4
  %11 = alloca i32, align 4
  %12 = alloca i32, align 4
  %13 = alloca i32, align 4
  %14 = alloca i32, align 4
  %15 = alloca ptr, align 8
  %16 = alloca i32, align 4
  %17 = alloca i32, align 4
  %18 = alloca ptr, align 8
  store ptr %0, ptr %9, align 8
  store i32 %1, ptr %10, align 4
  store i32 %2, ptr %11, align 4
  store i32 %3, ptr %12, align 4
  %19 = load ptr, ptr %9, align 8
  store ptr getelementptr inbounds (%struct._zend_phpdbg_globals, ptr @phpdbg_globals, i32 0, i32 35), ptr %6, align 8
  store ptr %19, ptr %7, align 8
  %20 = load ptr, ptr %6, align 8
  %21 = load ptr, ptr %7, align 8
  %22 = call ptr @zend_hash_find(ptr noundef %20, ptr noundef %21) #12
  store ptr %22, ptr %8, align 8
  %23 = load ptr, ptr %8, align 8
  %24 = icmp ne ptr %23, null
  br i1 %24, label %25, label %31

25:                                               ; preds = %4
  %26 = load ptr, ptr %8, align 8
  %27 = load ptr, ptr %26, align 8
  %28 = icmp ne ptr %27, null
  call void @llvm.assume(i1 %28)
  %29 = load ptr, ptr %8, align 8
  %30 = load ptr, ptr %29, align 8
  store ptr %30, ptr %5, align 8
  br label %32

31:                                               ; preds = %4
  store ptr null, ptr %5, align 8
  br label %32

32:                                               ; preds = %31, %25
  %33 = load ptr, ptr %5, align 8
  store ptr %33, ptr %15, align 8
  %34 = icmp ne ptr %33, null
  br i1 %34, label %38, label %35

35:                                               ; preds = %32
  %36 = load i32, ptr getelementptr inbounds (%struct._zend_phpdbg_globals, ptr @phpdbg_globals, i32 0, i32 39, i64 1), align 4
  %37 = call i32 (i32, i32, ptr, ...) @phpdbg_print(i32 noundef 1, i32 noundef %36, ptr noundef @.str.18)
  br label %127

38:                                               ; preds = %32
  %39 = load i32, ptr %11, align 4
  %40 = icmp slt i32 %39, 0
  br i1 %40, label %41, label %45

41:                                               ; preds = %38
  %42 = load i32, ptr %11, align 4
  %43 = load i32, ptr %10, align 4
  %44 = add i32 %43, %42
  store i32 %44, ptr %10, align 4
  store i32 0, ptr %11, align 4
  br label %45

45:                                               ; preds = %41, %38
  %46 = load i32, ptr %11, align 4
  %47 = load i32, ptr %10, align 4
  %48 = add i32 %46, %47
  store i32 %48, ptr %14, align 4
  %49 = load i32, ptr %14, align 4
  %50 = load ptr, ptr %15, align 8
  %51 = getelementptr inbounds %struct.phpdbg_file_source, ptr %50, i32 0, i32 3
  %52 = load i32, ptr %51, align 8
  %53 = icmp ugt i32 %49, %52
  br i1 %53, label %54, label %58

54:                                               ; preds = %45
  %55 = load ptr, ptr %15, align 8
  %56 = getelementptr inbounds %struct.phpdbg_file_source, ptr %55, i32 0, i32 3
  %57 = load i32, ptr %56, align 8
  store i32 %57, ptr %14, align 4
  br label %58

58:                                               ; preds = %54, %45
  %59 = load i32, ptr %11, align 4
  store i32 %59, ptr %13, align 4
  br label %60

60:                                               ; preds = %126, %58
  %61 = load i32, ptr %13, align 4
  %62 = load i32, ptr %14, align 4
  %63 = icmp ult i32 %61, %62
  br i1 %63, label %64, label %127

64:                                               ; preds = %60
  %65 = load ptr, ptr %15, align 8
  %66 = getelementptr inbounds %struct.phpdbg_file_source, ptr %65, i32 0, i32 4
  %67 = load i32, ptr %13, align 4
  %68 = add i32 %67, 1
  store i32 %68, ptr %13, align 4
  %69 = zext i32 %67 to i64
  %70 = getelementptr inbounds [1 x i32], ptr %66, i64 0, i64 %69
  %71 = load i32, ptr %70, align 4
  store i32 %71, ptr %16, align 4
  %72 = load ptr, ptr %15, align 8
  %73 = getelementptr inbounds %struct.phpdbg_file_source, ptr %72, i32 0, i32 4
  %74 = load i32, ptr %13, align 4
  %75 = zext i32 %74 to i64
  %76 = getelementptr inbounds [1 x i32], ptr %73, i64 0, i64 %75
  %77 = load i32, ptr %76, align 4
  %78 = load i32, ptr %16, align 4
  %79 = sub i32 %77, %78
  store i32 %79, ptr %17, align 4
  %80 = load ptr, ptr %15, align 8
  %81 = getelementptr inbounds %struct.phpdbg_file_source, ptr %80, i32 0, i32 0
  %82 = load ptr, ptr %81, align 8
  %83 = load i32, ptr %16, align 4
  %84 = zext i32 %83 to i64
  %85 = getelementptr inbounds i8, ptr %82, i64 %84
  store ptr %85, ptr %18, align 8
  %86 = load i32, ptr %12, align 4
  %87 = icmp ne i32 %86, 0
  br i1 %87, label %94, label %88

88:                                               ; preds = %64
  %89 = load i32, ptr getelementptr inbounds (%struct._zend_phpdbg_globals, ptr @phpdbg_globals, i32 0, i32 39, i64 1), align 4
  %90 = load i32, ptr %13, align 4
  %91 = load i32, ptr %17, align 4
  %92 = load ptr, ptr %18, align 8
  %93 = call i32 (i32, i32, ptr, ...) @phpdbg_print(i32 noundef 4, i32 noundef %89, ptr noundef @.str.19, i32 noundef %90, i32 noundef %91, ptr noundef %92)
  br label %111

94:                                               ; preds = %64
  %95 = load i32, ptr %12, align 4
  %96 = load i32, ptr %13, align 4
  %97 = icmp ne i32 %95, %96
  br i1 %97, label %98, label %104

98:                                               ; preds = %94
  %99 = load i32, ptr getelementptr inbounds (%struct._zend_phpdbg_globals, ptr @phpdbg_globals, i32 0, i32 39, i64 1), align 4
  %100 = load i32, ptr %13, align 4
  %101 = load i32, ptr %17, align 4
  %102 = load ptr, ptr %18, align 8
  %103 = call i32 (i32, i32, ptr, ...) @phpdbg_print(i32 noundef 4, i32 noundef %99, ptr noundef @.str.19, i32 noundef %100, i32 noundef %101, ptr noundef %102)
  br label %110

104:                                              ; preds = %94
  %105 = load i32, ptr getelementptr inbounds (%struct._zend_phpdbg_globals, ptr @phpdbg_globals, i32 0, i32 39, i64 1), align 4
  %106 = load i32, ptr %13, align 4
  %107 = load i32, ptr %17, align 4
  %108 = load ptr, ptr %18, align 8
  %109 = call i32 (i32, i32, ptr, ...) @phpdbg_print(i32 noundef 4, i32 noundef %105, ptr noundef @.str.20, i32 noundef %106, i32 noundef %107, ptr noundef %108)
  br label %110

110:                                              ; preds = %104, %98
  br label %111

111:                                              ; preds = %110, %88
  %112 = load ptr, ptr %18, align 8
  %113 = load i32, ptr %17, align 4
  %114 = zext i32 %113 to i64
  %115 = getelementptr inbounds i8, ptr %112, i64 %114
  %116 = getelementptr inbounds i8, ptr %115, i64 -1
  %117 = load i8, ptr %116, align 1
  %118 = sext i8 %117 to i32
  %119 = icmp ne i32 %118, 10
  br i1 %119, label %123, label %120

120:                                              ; preds = %111
  %121 = load i32, ptr %17, align 4
  %122 = icmp ne i32 %121, 0
  br i1 %122, label %126, label %123

123:                                              ; preds = %120, %111
  %124 = load i32, ptr getelementptr inbounds (%struct._zend_phpdbg_globals, ptr @phpdbg_globals, i32 0, i32 39, i64 1), align 4
  %125 = call i32 (i32, ptr, ...) @phpdbg_out_internal(i32 noundef %124, ptr noundef @.str.21)
  br label %126

126:                                              ; preds = %123, %120
  br label %60

127:                                              ; preds = %60, %35
  ret void
}