; Function Attrs: nounwind uwtable
define hidden void @phpdbg_list_file(ptr noundef %0, i32 noundef %1, i32 noundef %2, i32 noundef %3) local_unnamed_addr #0 {
  %5 = tail call ptr @zend_hash_find(ptr noundef nonnull getelementptr inbounds (%struct._zend_phpdbg_globals, ptr @phpdbg_globals, i64 0, i32 35), ptr noundef %0) #11
  %.not = icmp eq ptr %5, null
  br i1 %.not, label %6, label %9

6:                                                ; preds = %4
  %7 = load i32, ptr getelementptr inbounds (%struct._zend_phpdbg_globals, ptr @phpdbg_globals, i64 0, i32 39, i64 1), align 4
  %8 = tail call i32 (i32, i32, ptr, ...) @phpdbg_print(i32 noundef 1, i32 noundef %7, ptr noundef nonnull @.str.18) #11
  br label %.loopexit

9:                                                ; preds = %4
  %10 = load ptr, ptr %5, align 8, !nonnull !4, !noundef !4
  %spec.select = tail call i32 @llvm.smax.i32(i32 %2, i32 0)
  %11 = tail call i32 @llvm.smin.i32(i32 %2, i32 0)
  %spec.select54 = add i32 %11, %1
  %12 = add i32 %spec.select54, %spec.select
  %13 = getelementptr inbounds i8, ptr %10, i64 256
  %14 = load i32, ptr %13, align 8
  %.043 = tail call i32 @llvm.umin.i32(i32 %12, i32 %14)
  %15 = icmp ult i32 %spec.select, %.043
  br i1 %15, label %.lr.ph, label %.loopexit

.lr.ph:                                           ; preds = %9
  %16 = getelementptr inbounds i8, ptr %10, i64 260
  %.not52 = icmp eq i32 %3, 0
  %17 = zext nneg i32 %spec.select to i64
  br i1 %.not52, label %.lr.ph.split.us.preheader, label %.lr.ph.split.preheader

.lr.ph.split.preheader:                           ; preds = %.lr.ph
  %18 = zext i32 %3 to i64
  %wide.trip.count = zext i32 %.043 to i64
  br label %.lr.ph.split

.lr.ph.split.us.preheader:                        ; preds = %.lr.ph
  %wide.trip.count63 = zext i32 %.043 to i64
  br label %.lr.ph.split.us

.lr.ph.split.us:                                  ; preds = %.lr.ph.split.us.preheader, %39
  %indvars.iv60 = phi i64 [ %17, %.lr.ph.split.us.preheader ], [ %indvars.iv.next61, %39 ]
  %indvars.iv.next61 = add nuw nsw i64 %indvars.iv60, 1
  %19 = getelementptr inbounds [1 x i32], ptr %16, i64 0, i64 %indvars.iv60
  %20 = load i32, ptr %19, align 4
  %21 = getelementptr inbounds [1 x i32], ptr %16, i64 0, i64 %indvars.iv.next61
  %22 = load i32, ptr %21, align 4
  %23 = sub i32 %22, %20
  %24 = load ptr, ptr %10, align 8
  %25 = zext i32 %20 to i64
  %26 = getelementptr inbounds i8, ptr %24, i64 %25
  %27 = load i32, ptr getelementptr inbounds (%struct._zend_phpdbg_globals, ptr @phpdbg_globals, i64 0, i32 39, i64 1), align 4
  %28 = trunc i64 %indvars.iv.next61 to i32
  %29 = tail call i32 (i32, i32, ptr, ...) @phpdbg_print(i32 noundef 4, i32 noundef %27, ptr noundef nonnull @.str.19, i32 noundef %28, i32 noundef %23, ptr noundef %26) #11
  %30 = zext i32 %23 to i64
  %31 = getelementptr inbounds i8, ptr %26, i64 %30
  %32 = getelementptr inbounds i8, ptr %31, i64 -1
  %33 = load i8, ptr %32, align 1
  %34 = icmp eq i8 %33, 10
  %35 = icmp ne i32 %22, %20
  %or.cond.us = and i1 %34, %35
  br i1 %or.cond.us, label %39, label %36

36:                                               ; preds = %.lr.ph.split.us
  %37 = load i32, ptr getelementptr inbounds (%struct._zend_phpdbg_globals, ptr @phpdbg_globals, i64 0, i32 39, i64 1), align 4
  %38 = tail call i32 (i32, ptr, ...) @phpdbg_out_internal(i32 noundef %37, ptr noundef nonnull @.str.21) #11
  br label %39

39:                                               ; preds = %36, %.lr.ph.split.us
  %exitcond64.not = icmp eq i64 %indvars.iv.next61, %wide.trip.count63
  br i1 %exitcond64.not, label %.loopexit, label %.lr.ph.split.us

.lr.ph.split:                                     ; preds = %.lr.ph.split.preheader, %64
  %indvars.iv = phi i64 [ %17, %.lr.ph.split.preheader ], [ %indvars.iv.next, %64 ]
  %indvars.iv.next = add nuw nsw i64 %indvars.iv, 1
  %40 = getelementptr inbounds [1 x i32], ptr %16, i64 0, i64 %indvars.iv
  %41 = load i32, ptr %40, align 4
  %42 = getelementptr inbounds [1 x i32], ptr %16, i64 0, i64 %indvars.iv.next
  %43 = load i32, ptr %42, align 4
  %44 = sub i32 %43, %41
  %45 = load ptr, ptr %10, align 8
  %46 = zext i32 %41 to i64
  %47 = getelementptr inbounds i8, ptr %45, i64 %46
  %.not53 = icmp eq i64 %indvars.iv.next, %18
  %48 = load i32, ptr getelementptr inbounds (%struct._zend_phpdbg_globals, ptr @phpdbg_globals, i64 0, i32 39, i64 1), align 4
  br i1 %.not53, label %52, label %49

49:                                               ; preds = %.lr.ph.split
  %50 = trunc i64 %indvars.iv.next to i32
  %51 = tail call i32 (i32, i32, ptr, ...) @phpdbg_print(i32 noundef 4, i32 noundef %48, ptr noundef nonnull @.str.19, i32 noundef %50, i32 noundef %44, ptr noundef %47) #11
  br label %54

52:                                               ; preds = %.lr.ph.split
  %53 = tail call i32 (i32, i32, ptr, ...) @phpdbg_print(i32 noundef 4, i32 noundef %48, ptr noundef nonnull @.str.20, i32 noundef %3, i32 noundef %44, ptr noundef %47) #11
  br label %54

54:                                               ; preds = %49, %52
  %55 = zext i32 %44 to i64
  %56 = getelementptr inbounds i8, ptr %47, i64 %55
  %57 = getelementptr inbounds i8, ptr %56, i64 -1
  %58 = load i8, ptr %57, align 1
  %59 = icmp eq i8 %58, 10
  %60 = icmp ne i32 %43, %41
  %or.cond = select i1 %59, i1 %60, i1 false
  br i1 %or.cond, label %64, label %61

61:                                               ; preds = %54
  %62 = load i32, ptr getelementptr inbounds (%struct._zend_phpdbg_globals, ptr @phpdbg_globals, i64 0, i32 39, i64 1), align 4
  %63 = tail call i32 (i32, ptr, ...) @phpdbg_out_internal(i32 noundef %62, ptr noundef nonnull @.str.21) #11
  br label %64

64:                                               ; preds = %54, %61
  %exitcond.not = icmp eq i64 %indvars.iv.next, %wide.trip.count
  br i1 %exitcond.not, label %.loopexit, label %.lr.ph.split

.loopexit:                                        ; preds = %64, %39, %9, %6
  ret void
}